target datalayout = "e-m:e-p270:32:32-p271:32:32-p272:64:64-i64:64-i128:128-f80:128-n8:16:32:64-S128"
target triple = "x86_64-pc-linux-gnu"

%struct.AVExpr = type { i32, double, i32, %union.anon, [3 x ptr], ptr, ptr }
%union.anon = type { ptr }

; Function Attrs: nounwind uwtable
define internal i32 @expr_count(ptr noundef %0, ptr noundef %1, i32 noundef %2, i32 noundef %3) #0 {
  %5 = alloca i32, align 4
  %6 = alloca ptr, align 8
  %7 = alloca ptr, align 8
  %8 = alloca i32, align 4
  %9 = alloca i32, align 4
  %10 = alloca i32, align 4
  %11 = alloca i32, align 4
  store ptr %0, ptr %6, align 8, !tbaa !21
  store ptr %1, ptr %7, align 8, !tbaa !50
  store i32 %2, ptr %8, align 4, !tbaa !17
  store i32 %3, ptr %9, align 4, !tbaa !17
  call void @llvm.lifetime.start.p0(i64 4, ptr %10) #12
  %12 = load ptr, ptr %6, align 8, !tbaa !21
  %13 = icmp ne ptr %12, null
  br i1 %13, label %14, label %20

14:                                               ; preds = %4
  %15 = load ptr, ptr %7, align 8, !tbaa !50
  %16 = icmp ne ptr %15, null
  br i1 %16, label %17, label %20

17:                                               ; preds = %14
  %18 = load i32, ptr %8, align 4, !tbaa !17
  %19 = icmp ne i32 %18, 0
  br i1 %19, label %21, label %20

20:                                               ; preds = %17, %14, %4
  store i32 -22, ptr %5, align 4
  store i32 1, ptr %11, align 4
  br label %77

21:                                               ; preds = %17
  store i32 0, ptr %10, align 4, !tbaa !17
  br label %22

22:                                               ; preds = %52, %21
  %23 = load ptr, ptr %6, align 8, !tbaa !21
  %24 = getelementptr inbounds nuw %struct.AVExpr, ptr %23, i32 0, i32 0
  %25 = load i32, ptr %24, align 8, !tbaa !49
  %26 = load i32, ptr %9, align 4, !tbaa !17
  %27 = icmp ne i32 %25, %26
  br i1 %27, label %28, label %39

28:                                               ; preds = %22
  %29 = load i32, ptr %10, align 4, !tbaa !17
  %30 = icmp slt i32 %29, 3
  br i1 %30, label %31, label %39

31:                                               ; preds = %28
  %32 = load ptr, ptr %6, align 8, !tbaa !21
  %33 = getelementptr inbounds nuw %struct.AVExpr, ptr %32, i32 0, i32 4
  %34 = load i32, ptr %10, align 4, !tbaa !17
  %35 = sext i32 %34 to i64
  %36 = getelementptr inbounds [3 x ptr], ptr %33, i64 0, i64 %35
  %37 = load ptr, ptr %36, align 8, !tbaa !21
  %38 = icmp ne ptr %37, null
  br label %39

39:                                               ; preds = %31, %28, %22
  %40 = phi i1 [ false, %28 ], [ false, %22 ], [ %38, %31 ]
  br i1 %40, label %41, label %55

41:                                               ; preds = %39
  %42 = load ptr, ptr %6, align 8, !tbaa !21
  %43 = getelementptr inbounds nuw %struct.AVExpr, ptr %42, i32 0, i32 4
  %44 = load i32, ptr %10, align 4, !tbaa !17
  %45 = sext i32 %44 to i64
  %46 = getelementptr inbounds [3 x ptr], ptr %43, i64 0, i64 %45
  %47 = load ptr, ptr %46, align 8, !tbaa !21
  %48 = load ptr, ptr %7, align 8, !tbaa !50
  %49 = load i32, ptr %8, align 4, !tbaa !17
  %50 = load i32, ptr %9, align 4, !tbaa !17
  %51 = call i32 @expr_count(ptr noundef %47, ptr noundef %48, i32 noundef %49, i32 noundef %50)
  br label %52

52:                                               ; preds = %41
  %53 = load i32, ptr %10, align 4, !tbaa !17
  %54 = add nsw i32 %53, 1
  store i32 %54, ptr %10, align 4, !tbaa !17
  br label %22, !llvm.loop !52

55:                                               ; preds = %39
  %56 = load ptr, ptr %6, align 8, !tbaa !21
  %57 = getelementptr inbounds nuw %struct.AVExpr, ptr %56, i32 0, i32 0
  %58 = load i32, ptr %57, align 8, !tbaa !49
  %59 = load i32, ptr %9, align 4, !tbaa !17
  %60 = icmp eq i32 %58, %59
  br i1 %60, label %61, label %76

61:                                               ; preds = %55
  %62 = load ptr, ptr %6, align 8, !tbaa !21
  %63 = getelementptr inbounds nuw %struct.AVExpr, ptr %62, i32 0, i32 2
  %64 = load i32, ptr %63, align 8, !tbaa !53
  %65 = load i32, ptr %8, align 4, !tbaa !17
  %66 = icmp slt i32 %64, %65
  br i1 %66, label %67, label %76

67:                                               ; preds = %61
  %68 = load ptr, ptr %7, align 8, !tbaa !50
  %69 = load ptr, ptr %6, align 8, !tbaa !21
  %70 = getelementptr inbounds nuw %struct.AVExpr, ptr %69, i32 0, i32 2
  %71 = load i32, ptr %70, align 8, !tbaa !53
  %72 = sext i32 %71 to i64
  %73 = getelementptr inbounds i32, ptr %68, i64 %72
  %74 = load i32, ptr %73, align 4, !tbaa !17
  %75 = add i32 %74, 1
  store i32 %75, ptr %73, align 4, !tbaa !17
  br label %76

76:                                               ; preds = %67, %61, %55
  store i32 0, ptr %5, align 4
  store i32 1, ptr %11, align 4
  br label %77

77:                                               ; preds = %76, %20
  call void @llvm.lifetime.end.p0(i64 4, ptr %10) #12
  %78 = load i32, ptr %5, align 4
  ret i32 %78
}